target datalayout = "e-m:e-p270:32:32-p271:32:32-p272:64:64-i64:64-i128:128-f80:128-n8:16:32:64-S128"
target triple = "x86_64-pc-linux-gnu"

%"class.std::shared_ptr" = type { %"class.std::__shared_ptr" }
%"class.std::__shared_ptr" = type { ptr, %"class.std::__shared_count" }
%"class.std::__shared_count" = type { ptr }
%"class.LIEF::MachO::ThreadCommand" = type { %"class.LIEF::MachO::LoadCommand", i32, i32, i32, %"class.std::vector.39" }
%"class.LIEF::MachO::LoadCommand" = type { %"class.LIEF::Object", %"class.std::vector.39", i64, i32, i64 }
%"class.LIEF::Object" = type { ptr }
%"class.std::vector.39" = type { %"struct.std::_Vector_base.40" }
%"struct.std::_Vector_base.40" = type { %"struct.std::_Vector_base<unsigned char, std::allocator<unsigned char>>::_Vector_impl" }
%"struct.std::_Vector_base<unsigned char, std::allocator<unsigned char>>::_Vector_impl" = type { %"struct.std::_Vector_base<unsigned char, std::allocator<unsigned char>>::_Vector_impl_data" }
%"struct.std::_Vector_base<unsigned char, std::allocator<unsigned char>>::_Vector_impl_data" = type { ptr, ptr, ptr }
%"struct.LIEF::MachO::details::x86_thread_state_t" = type { i32, i32, i32, i32, i32, i32, i32, i32, i32, i32, i32, i32, i32, i32, i32, i32 }
%"struct.LIEF::MachO::details::x86_thread_state64_t" = type { i64, i64, i64, i64, i64, i64, i64, i64, i64, i64, i64, i64, i64, i64, i64, i64, i64, i64, i64, i64, i64 }
%"struct.LIEF::MachO::details::arm_thread_state_t" = type { i32, i32, i32, i32, i32, i32, i32, i32, i32, i32, i32, i32, i32, i32, i32, i32, i32 }
%"struct.LIEF::MachO::details::arm_thread_state64_t" = type { [29 x i64], i64, i64, i64, i64, i32 }
%"class.LIEF::logging::Logger" = type { %"class.std::shared_ptr" }

@.str = private unnamed_addr constant [21 x i8] c"Unknown architecture\00", align 1

; Function Attrs: mustprogress nounwind uwtable
define linkonce_odr hidden noundef ptr @_ZNKSt12__shared_ptrIN6spdlog6loggerELN9__gnu_cxx12_Lock_policyE2EE3getEv(ptr noundef nonnull align 8 dereferenceable(16) %0) #1 comdat align 2 {
  %2 = alloca ptr, align 8
  store ptr %0, ptr %2, align 8
  %3 = load ptr, ptr %2, align 8
  %4 = getelementptr inbounds %"class.std::__shared_ptr", ptr %3, i32 0, i32 0
  %5 = load ptr, ptr %4, align 8
  ret ptr %5
}

; Function Attrs: mustprogress nounwind uwtable
define linkonce_odr hidden noundef ptr @_ZNKSt19__shared_ptr_accessIN6spdlog6loggerELN9__gnu_cxx12_Lock_policyE2ELb0ELb0EE6_M_getEv(ptr noundef nonnull align 1 dereferenceable(1) %0) #1 comdat align 2 {
  %2 = alloca ptr, align 8
  store ptr %0, ptr %2, align 8
  %3 = load ptr, ptr %2, align 8
  %4 = call noundef ptr @_ZNKSt12__shared_ptrIN6spdlog6loggerELN9__gnu_cxx12_Lock_policyE2EE3getEv(ptr noundef nonnull align 8 dereferenceable(16) %3) #14
  ret ptr %4
}

; Function Attrs: mustprogress uwtable
define linkonce_odr hidden void @_ZN6spdlog6logger5errorIPKcEEvRKT_(ptr noundef nonnull align 8 dereferenceable(208) %0, ptr noundef nonnull align 8 dereferenceable(8) %1) #3 comdat align 2 {
  %3 = alloca ptr, align 8
  %4 = alloca ptr, align 8
  store ptr %0, ptr %3, align 8
  store ptr %1, ptr %4, align 8
  %5 = load ptr, ptr %3, align 8
  %6 = load ptr, ptr %4, align 8
  call void @_ZN6spdlog6logger3logIPKcEEvNS_5level10level_enumERKT_(ptr noundef nonnull align 8 dereferenceable(208) %5, i32 noundef 4, ptr noundef nonnull align 8 dereferenceable(8) %6)
  ret void
}

; Function Attrs: mustprogress nounwind uwtable
define linkonce_odr hidden noundef ptr @_ZNKSt19__shared_ptr_accessIN6spdlog6loggerELN9__gnu_cxx12_Lock_policyE2ELb0ELb0EEptEv(ptr noundef nonnull align 1 dereferenceable(1) %0) #1 comdat align 2 {
  %2 = alloca ptr, align 8
  store ptr %0, ptr %2, align 8
  %3 = load ptr, ptr %2, align 8
  %4 = call noundef ptr @_ZNKSt19__shared_ptr_accessIN6spdlog6loggerELN9__gnu_cxx12_Lock_policyE2ELb0ELb0EE6_M_getEv(ptr noundef nonnull align 1 dereferenceable(1) %3) #14
  ret ptr %4
}

; Function Attrs: mustprogress nounwind uwtable
define linkonce_odr hidden noundef ptr @_ZNKSt6vectorIhSaIhEE11_M_data_ptrIhEEPT_S4_(ptr noundef nonnull align 8 dereferenceable(24) %0, ptr noundef %1) #1 comdat align 2 {
  %3 = alloca ptr, align 8
  %4 = alloca ptr, align 8
  store ptr %0, ptr %3, align 8
  store ptr %1, ptr %4, align 8
  %5 = load ptr, ptr %4, align 8
  ret ptr %5
}

; Function Attrs: mustprogress uwtable
define linkonce_odr hidden void @_ZN4LIEF7logging6Logger3errIJEEEvPKcDpRKT_(ptr noundef %0) #3 comdat align 2 {
  %2 = alloca ptr, align 8
  store ptr %0, ptr %2, align 8
  %3 = call noundef nonnull align 8 dereferenceable(16) ptr @_ZN4LIEF7logging6Logger8instanceEv()
  %4 = getelementptr inbounds %"class.LIEF::logging::Logger", ptr %3, i32 0, i32 0
  %5 = call noundef ptr @_ZNKSt19__shared_ptr_accessIN6spdlog6loggerELN9__gnu_cxx12_Lock_policyE2ELb0ELb0EEptEv(ptr noundef nonnull align 1 dereferenceable(1) %4) #14
  call void @_ZN6spdlog6logger5errorIPKcEEvRKT_(ptr noundef nonnull align 8 dereferenceable(208) %5, ptr noundef nonnull align 8 dereferenceable(8) %2)
  ret void
}

; Function Attrs: mustprogress nounwind uwtable
define linkonce_odr hidden noundef ptr @_ZNKSt6vectorIhSaIhEE4dataEv(ptr noundef nonnull align 8 dereferenceable(24) %0) #1 comdat align 2 {
  %2 = alloca ptr, align 8
  store ptr %0, ptr %2, align 8
  %3 = load ptr, ptr %2, align 8
  %4 = getelementptr inbounds %"struct.std::_Vector_base.40", ptr %3, i32 0, i32 0
  %5 = getelementptr inbounds %"struct.std::_Vector_base<unsigned char, std::allocator<unsigned char>>::_Vector_impl_data", ptr %4, i32 0, i32 0
  %6 = load ptr, ptr %5, align 8
  %7 = call noundef ptr @_ZNKSt6vectorIhSaIhEE11_M_data_ptrIhEEPT_S4_(ptr noundef nonnull align 8 dereferenceable(24) %3, ptr noundef %6) #14
  ret ptr %7
}

; Function Attrs: mustprogress nounwind uwtable
define linkonce_odr hidden noundef i64 @_ZNKSt6vectorIhSaIhEE4sizeEv(ptr noundef nonnull align 8 dereferenceable(24) %0) #1 comdat align 2 {
  %2 = alloca ptr, align 8
  store ptr %0, ptr %2, align 8
  %3 = load ptr, ptr %2, align 8
  %4 = getelementptr inbounds %"struct.std::_Vector_base.40", ptr %3, i32 0, i32 0
  %5 = getelementptr inbounds %"struct.std::_Vector_base<unsigned char, std::allocator<unsigned char>>::_Vector_impl_data", ptr %4, i32 0, i32 1
  %6 = load ptr, ptr %5, align 8
  %7 = getelementptr inbounds %"struct.std::_Vector_base.40", ptr %3, i32 0, i32 0
  %8 = getelementptr inbounds %"struct.std::_Vector_base<unsigned char, std::allocator<unsigned char>>::_Vector_impl_data", ptr %7, i32 0, i32 0
  %9 = load ptr, ptr %8, align 8
  %10 = ptrtoint ptr %6 to i64
  %11 = ptrtoint ptr %9 to i64
  %12 = sub i64 %10, %11
  ret i64 %12
}

; Function Attrs: mustprogress uwtable
define noundef i64 @_ZNK4LIEF5MachO13ThreadCommand2pcEv(ptr noundef nonnull align 8 dereferenceable(96) %0) #3 align 2 {
  %2 = alloca i64, align 8
  %3 = alloca ptr, align 8
  %4 = alloca i64, align 8
  store ptr %0, ptr %3, align 8
  %5 = load ptr, ptr %3, align 8
  store i64 0, ptr %4, align 8
  %6 = getelementptr inbounds %"class.LIEF::MachO::ThreadCommand", ptr %5, i32 0, i32 3
  %7 = load i32, ptr %6, align 8
  switch i32 %7, label %54 [
    i32 7, label %8
    i32 16777223, label %20
    i32 12, label %31
    i32 16777228, label %43
  ]

8:                                                ; preds = %1
  %9 = getelementptr inbounds %"class.LIEF::MachO::ThreadCommand", ptr %5, i32 0, i32 4
  %10 = call noundef i64 @_ZNKSt6vectorIhSaIhEE4sizeEv(ptr noundef nonnull align 8 dereferenceable(24) %9) #14
  %11 = icmp ult i64 %10, 64
  br i1 %11, label %12, label %14

12:                                               ; preds = %8
  %13 = load i64, ptr %4, align 8
  store i64 %13, ptr %2, align 8
  br label %57

14:                                               ; preds = %8
  %15 = getelementptr inbounds %"class.LIEF::MachO::ThreadCommand", ptr %5, i32 0, i32 4
  %16 = call noundef ptr @_ZNKSt6vectorIhSaIhEE4dataEv(ptr noundef nonnull align 8 dereferenceable(24) %15) #14
  %17 = getelementptr inbounds %"struct.LIEF::MachO::details::x86_thread_state_t", ptr %16, i32 0, i32 10
  %18 = load i32, ptr %17, align 4
  %19 = zext i32 %18 to i64
  store i64 %19, ptr %4, align 8
  br label %55

20:                                               ; preds = %1
  %21 = getelementptr inbounds %"class.LIEF::MachO::ThreadCommand", ptr %5, i32 0, i32 4
  %22 = call noundef i64 @_ZNKSt6vectorIhSaIhEE4sizeEv(ptr noundef nonnull align 8 dereferenceable(24) %21) #14
  %23 = icmp ult i64 %22, 168
  br i1 %23, label %24, label %26

24:                                               ; preds = %20
  %25 = load i64, ptr %4, align 8
  store i64 %25, ptr %2, align 8
  br label %57

26:                                               ; preds = %20
  %27 = getelementptr inbounds %"class.LIEF::MachO::ThreadCommand", ptr %5, i32 0, i32 4
  %28 = call noundef ptr @_ZNKSt6vectorIhSaIhEE4dataEv(ptr noundef nonnull align 8 dereferenceable(24) %27) #14
  %29 = getelementptr inbounds %"struct.LIEF::MachO::details::x86_thread_state64_t", ptr %28, i32 0, i32 16
  %30 = load i64, ptr %29, align 8
  store i64 %30, ptr %4, align 8
  br label %55

31:                                               ; preds = %1
  %32 = getelementptr inbounds %"class.LIEF::MachO::ThreadCommand", ptr %5, i32 0, i32 4
  %33 = call noundef i64 @_ZNKSt6vectorIhSaIhEE4sizeEv(ptr noundef nonnull align 8 dereferenceable(24) %32) #14
  %34 = icmp ult i64 %33, 68
  br i1 %34, label %35, label %37

35:                                               ; preds = %31
  %36 = load i64, ptr %4, align 8
  store i64 %36, ptr %2, align 8
  br label %57

37:                                               ; preds = %31
  %38 = getelementptr inbounds %"class.LIEF::MachO::ThreadCommand", ptr %5, i32 0, i32 4
  %39 = call noundef ptr @_ZNKSt6vectorIhSaIhEE4dataEv(ptr noundef nonnull align 8 dereferenceable(24) %38) #14
  %40 = getelementptr inbounds %"struct.LIEF::MachO::details::arm_thread_state_t", ptr %39, i32 0, i32 15
  %41 = load i32, ptr %40, align 4
  %42 = zext i32 %41 to i64
  store i64 %42, ptr %4, align 8
  br label %55

43:                                               ; preds = %1
  %44 = getelementptr inbounds %"class.LIEF::MachO::ThreadCommand", ptr %5, i32 0, i32 4
  %45 = call noundef i64 @_ZNKSt6vectorIhSaIhEE4sizeEv(ptr noundef nonnull align 8 dereferenceable(24) %44) #14
  %46 = icmp ult i64 %45, 272
  br i1 %46, label %47, label %49

47:                                               ; preds = %43
  %48 = load i64, ptr %4, align 8
  store i64 %48, ptr %2, align 8
  br label %57

49:                                               ; preds = %43
  %50 = getelementptr inbounds %"class.LIEF::MachO::ThreadCommand", ptr %5, i32 0, i32 4
  %51 = call noundef ptr @_ZNKSt6vectorIhSaIhEE4dataEv(ptr noundef nonnull align 8 dereferenceable(24) %50) #14
  %52 = getelementptr inbounds %"struct.LIEF::MachO::details::arm_thread_state64_t", ptr %51, i32 0, i32 4
  %53 = load i64, ptr %52, align 8
  store i64 %53, ptr %4, align 8
  br label %55

54:                                               ; preds = %1
  call void @_ZN4LIEF7logging6Logger3errIJEEEvPKcDpRKT_(ptr noundef @.str)
  br label %55

55:                                               ; preds = %54, %49, %37, %26, %14
  %56 = load i64, ptr %4, align 8
  store i64 %56, ptr %2, align 8
  br label %57

57:                                               ; preds = %55, %47, %35, %24, %12
  %58 = load i64, ptr %2, align 8
  ret i64 %58
}