; Function Attrs: mustprogress uwtable
define noundef i64 @_ZNK4LIEF5MachO13ThreadCommand2pcEv(ptr nocapture noundef nonnull readonly align 8 dereferenceable(96) %0) local_unnamed_addr #1 align 2 {
  %2 = alloca ptr, align 8
  %3 = getelementptr inbounds i8, ptr %0, i64 64
  %4 = load i32, ptr %3, align 8
  switch i32 %4, label %55 [
    i32 7, label %5
    i32 16777223, label %18
    i32 12, label %30
    i32 16777228, label %43
  ]

5:                                                ; preds = %1
  %6 = getelementptr inbounds i8, ptr %0, i64 72
  %7 = getelementptr inbounds i8, ptr %0, i64 80
  %8 = load ptr, ptr %7, align 8
  %9 = load ptr, ptr %6, align 8
  %10 = ptrtoint ptr %8 to i64
  %11 = ptrtoint ptr %9 to i64
  %12 = sub i64 %10, %11
  %13 = icmp ult i64 %12, 64
  br i1 %13, label %58, label %14

14:                                               ; preds = %5
  %15 = getelementptr inbounds i8, ptr %9, i64 40
  %16 = load i32, ptr %15, align 4
  %17 = zext i32 %16 to i64
  br label %58

18:                                               ; preds = %1
  %19 = getelementptr inbounds i8, ptr %0, i64 72
  %20 = getelementptr inbounds i8, ptr %0, i64 80
  %21 = load ptr, ptr %20, align 8
  %22 = load ptr, ptr %19, align 8
  %23 = ptrtoint ptr %21 to i64
  %24 = ptrtoint ptr %22 to i64
  %25 = sub i64 %23, %24
  %26 = icmp ult i64 %25, 168
  br i1 %26, label %58, label %27

27:                                               ; preds = %18
  %28 = getelementptr inbounds i8, ptr %22, i64 128
  %29 = load i64, ptr %28, align 8
  br label %58

30:                                               ; preds = %1
  %31 = getelementptr inbounds i8, ptr %0, i64 72
  %32 = getelementptr inbounds i8, ptr %0, i64 80
  %33 = load ptr, ptr %32, align 8
  %34 = load ptr, ptr %31, align 8
  %35 = ptrtoint ptr %33 to i64
  %36 = ptrtoint ptr %34 to i64
  %37 = sub i64 %35, %36
  %38 = icmp ult i64 %37, 68
  br i1 %38, label %58, label %39

39:                                               ; preds = %30
  %40 = getelementptr inbounds i8, ptr %34, i64 60
  %41 = load i32, ptr %40, align 4
  %42 = zext i32 %41 to i64
  br label %58

43:                                               ; preds = %1
  %44 = getelementptr inbounds i8, ptr %0, i64 72
  %45 = getelementptr inbounds i8, ptr %0, i64 80
  %46 = load ptr, ptr %45, align 8
  %47 = load ptr, ptr %44, align 8
  %48 = ptrtoint ptr %46 to i64
  %49 = ptrtoint ptr %47 to i64
  %50 = sub i64 %48, %49
  %51 = icmp ult i64 %50, 272
  br i1 %51, label %58, label %52

52:                                               ; preds = %43
  %53 = getelementptr inbounds i8, ptr %47, i64 256
  %54 = load i64, ptr %53, align 8
  br label %58

55:                                               ; preds = %1
  call void @llvm.lifetime.start.p0(i64 8, ptr nonnull %2)
  store ptr @.str, ptr %2, align 8
  %56 = tail call noundef nonnull align 8 dereferenceable(16) ptr @_ZN4LIEF7logging6Logger8instanceEv()
  %57 = load ptr, ptr %56, align 8
  call void @_ZN6spdlog6logger3logIPKcEEvNS_5level10level_enumERKT_(ptr noundef nonnull align 8 dereferenceable(208) %57, i32 noundef 4, ptr noundef nonnull align 8 dereferenceable(8) %2)
  call void @llvm.lifetime.end.p0(i64 8, ptr nonnull %2)
  br label %58

58:                                               ; preds = %14, %27, %39, %52, %55, %43, %30, %18, %5
  %.06 = phi i64 [ 0, %5 ], [ 0, %18 ], [ 0, %30 ], [ 0, %43 ], [ 0, %55 ], [ %54, %52 ], [ %42, %39 ], [ %29, %27 ], [ %17, %14 ]
  ret i64 %.06
}